target datalayout = "e-m:e-p270:32:32-p271:32:32-p272:64:64-i64:64-i128:128-f80:128-n8:16:32:64-S128"
target triple = "x86_64-pc-linux-gnu"

%struct.TupleTableSlot = type { i32, i16, i16, ptr, ptr, ptr, ptr, ptr, %struct.ItemPointerData, i32 }
%struct.ItemPointerData = type { %struct.BlockIdData, i16 }
%struct.BlockIdData = type { i16, i16 }
%struct.HeapTupleTableSlot = type { %struct.TupleTableSlot, ptr, i32, %struct.HeapTupleData }
%struct.HeapTupleData = type { i32, %struct.ItemPointerData, i32, ptr }
%struct.BufferHeapTupleTableSlot = type { %struct.HeapTupleTableSlot, i32 }

@CurrentMemoryContext = external global ptr, align 8

; Function Attrs: inlinehint nounwind uwtable
define internal zeroext i1 @BufferIsValid(i32 noundef %0) #4 {
  %2 = alloca i32, align 4
  store i32 %0, ptr %2, align 4
  %3 = load i32, ptr %2, align 4
  %4 = icmp ne i32 %3, 0
  ret i1 %4
}

; Function Attrs: inlinehint nounwind uwtable
define internal ptr @MemoryContextSwitchTo(ptr noundef %0) #4 {
  %2 = alloca ptr, align 8
  %3 = alloca ptr, align 8
  store ptr %0, ptr %2, align 8
  call void @llvm.lifetime.start.p0(i64 8, ptr %3) #10
  %4 = load ptr, ptr @CurrentMemoryContext, align 8
  store ptr %4, ptr %3, align 8
  %5 = load ptr, ptr %2, align 8
  store ptr %5, ptr @CurrentMemoryContext, align 8
  %6 = load ptr, ptr %3, align 8
  call void @llvm.lifetime.end.p0(i64 8, ptr %3) #10
  ret ptr %6
}

; Function Attrs: nounwind uwtable
define internal void @tts_buffer_heap_materialize(ptr noundef %0) #0 {
  %2 = alloca ptr, align 8
  %3 = alloca ptr, align 8
  %4 = alloca ptr, align 8
  %5 = alloca i32, align 4
  store ptr %0, ptr %2, align 8
  call void @llvm.lifetime.start.p0(i64 8, ptr %3) #10
  %6 = load ptr, ptr %2, align 8
  store ptr %6, ptr %3, align 8
  call void @llvm.lifetime.start.p0(i64 8, ptr %4) #10
  %7 = load ptr, ptr %2, align 8
  %8 = getelementptr inbounds nuw %struct.TupleTableSlot, ptr %7, i32 0, i32 1
  %9 = load i16, ptr %8, align 4
  %10 = zext i16 %9 to i32
  %11 = and i32 %10, 4
  %12 = icmp ne i32 %11, 0
  br i1 %12, label %13, label %14

13:                                               ; preds = %1
  store i32 1, ptr %5, align 4
  br label %78

14:                                               ; preds = %1
  %15 = load ptr, ptr %2, align 8
  %16 = getelementptr inbounds nuw %struct.TupleTableSlot, ptr %15, i32 0, i32 7
  %17 = load ptr, ptr %16, align 8
  %18 = call ptr @MemoryContextSwitchTo(ptr noundef %17)
  store ptr %18, ptr %4, align 8
  %19 = load ptr, ptr %3, align 8
  %20 = getelementptr inbounds nuw %struct.BufferHeapTupleTableSlot, ptr %19, i32 0, i32 0
  %21 = getelementptr inbounds nuw %struct.HeapTupleTableSlot, ptr %20, i32 0, i32 2
  store i32 0, ptr %21, align 8
  %22 = load ptr, ptr %2, align 8
  %23 = getelementptr inbounds nuw %struct.TupleTableSlot, ptr %22, i32 0, i32 2
  store i16 0, ptr %23, align 2
  %24 = load ptr, ptr %3, align 8
  %25 = getelementptr inbounds nuw %struct.BufferHeapTupleTableSlot, ptr %24, i32 0, i32 0
  %26 = getelementptr inbounds nuw %struct.HeapTupleTableSlot, ptr %25, i32 0, i32 1
  %27 = load ptr, ptr %26, align 8
  %28 = icmp ne ptr %27, null
  br i1 %28, label %43, label %29

29:                                               ; preds = %14
  %30 = load ptr, ptr %2, align 8
  %31 = getelementptr inbounds nuw %struct.TupleTableSlot, ptr %30, i32 0, i32 4
  %32 = load ptr, ptr %31, align 8
  %33 = load ptr, ptr %2, align 8
  %34 = getelementptr inbounds nuw %struct.TupleTableSlot, ptr %33, i32 0, i32 5
  %35 = load ptr, ptr %34, align 8
  %36 = load ptr, ptr %2, align 8
  %37 = getelementptr inbounds nuw %struct.TupleTableSlot, ptr %36, i32 0, i32 6
  %38 = load ptr, ptr %37, align 8
  %39 = call ptr @heap_form_tuple(ptr noundef %32, ptr noundef %35, ptr noundef %38)
  %40 = load ptr, ptr %3, align 8
  %41 = getelementptr inbounds nuw %struct.BufferHeapTupleTableSlot, ptr %40, i32 0, i32 0
  %42 = getelementptr inbounds nuw %struct.HeapTupleTableSlot, ptr %41, i32 0, i32 1
  store ptr %39, ptr %42, align 8
  br label %69

43:                                               ; preds = %14
  %44 = load ptr, ptr %3, align 8
  %45 = getelementptr inbounds nuw %struct.BufferHeapTupleTableSlot, ptr %44, i32 0, i32 0
  %46 = getelementptr inbounds nuw %struct.HeapTupleTableSlot, ptr %45, i32 0, i32 1
  %47 = load ptr, ptr %46, align 8
  %48 = call ptr @heap_copytuple(ptr noundef %47)
  %49 = load ptr, ptr %3, align 8
  %50 = getelementptr inbounds nuw %struct.BufferHeapTupleTableSlot, ptr %49, i32 0, i32 0
  %51 = getelementptr inbounds nuw %struct.HeapTupleTableSlot, ptr %50, i32 0, i32 1
  store ptr %48, ptr %51, align 8
  %52 = load ptr, ptr %3, align 8
  %53 = getelementptr inbounds nuw %struct.BufferHeapTupleTableSlot, ptr %52, i32 0, i32 1
  %54 = load i32, ptr %53, align 8
  %55 = call zeroext i1 @BufferIsValid(i32 noundef %54)
  %56 = zext i1 %55 to i32
  %57 = icmp ne i32 %56, 0
  %58 = zext i1 %57 to i32
  %59 = sext i32 %58 to i64
  %60 = call i64 @llvm.expect.i64(i64 %59, i64 1)
  %61 = icmp ne i64 %60, 0
  br i1 %61, label %62, label %66

62:                                               ; preds = %43
  %63 = load ptr, ptr %3, align 8
  %64 = getelementptr inbounds nuw %struct.BufferHeapTupleTableSlot, ptr %63, i32 0, i32 1
  %65 = load i32, ptr %64, align 8
  call void @ReleaseBuffer(i32 noundef %65)
  br label %66

66:                                               ; preds = %62, %43
  %67 = load ptr, ptr %3, align 8
  %68 = getelementptr inbounds nuw %struct.BufferHeapTupleTableSlot, ptr %67, i32 0, i32 1
  store i32 0, ptr %68, align 8
  br label %69

69:                                               ; preds = %66, %29
  %70 = load ptr, ptr %2, align 8
  %71 = getelementptr inbounds nuw %struct.TupleTableSlot, ptr %70, i32 0, i32 1
  %72 = load i16, ptr %71, align 4
  %73 = zext i16 %72 to i32
  %74 = or i32 %73, 4
  %75 = trunc i32 %74 to i16
  store i16 %75, ptr %71, align 4
  %76 = load ptr, ptr %4, align 8
  %77 = call ptr @MemoryContextSwitchTo(ptr noundef %76)
  store i32 0, ptr %5, align 4
  br label %78

78:                                               ; preds = %69, %13
  call void @llvm.lifetime.end.p0(i64 8, ptr %4) #10
  call void @llvm.lifetime.end.p0(i64 8, ptr %3) #10
  %79 = load i32, ptr %5, align 4
  switch i32 %79, label %81 [
    i32 0, label %80
    i32 1, label %80
  ]

80:                                               ; preds = %78, %78
  ret void

81:                                               ; preds = %78
  unreachable
}

; Function Attrs: nounwind uwtable
define internal ptr @tts_buffer_heap_get_heap_tuple(ptr noundef %0) #0 {
  %2 = alloca ptr, align 8
  %3 = alloca ptr, align 8
  store ptr %0, ptr %2, align 8
  call void @llvm.lifetime.start.p0(i64 8, ptr %3) #10
  %4 = load ptr, ptr %2, align 8
  store ptr %4, ptr %3, align 8
  %5 = load ptr, ptr %3, align 8
  %6 = getelementptr inbounds nuw %struct.BufferHeapTupleTableSlot, ptr %5, i32 0, i32 0
  %7 = getelementptr inbounds nuw %struct.HeapTupleTableSlot, ptr %6, i32 0, i32 1
  %8 = load ptr, ptr %7, align 8
  %9 = icmp ne ptr %8, null
  br i1 %9, label %12, label %10

10:                                               ; preds = %1
  %11 = load ptr, ptr %2, align 8
  call void @tts_buffer_heap_materialize(ptr noundef %11)
  br label %12

12:                                               ; preds = %10, %1
  %13 = load ptr, ptr %3, align 8
  %14 = getelementptr inbounds nuw %struct.BufferHeapTupleTableSlot, ptr %13, i32 0, i32 0
  %15 = getelementptr inbounds nuw %struct.HeapTupleTableSlot, ptr %14, i32 0, i32 1
  %16 = load ptr, ptr %15, align 8
  call void @llvm.lifetime.end.p0(i64 8, ptr %3) #10
  ret ptr %16
}