; Function Attrs: nounwind uwtable
define internal ptr @tts_buffer_heap_get_heap_tuple(ptr noundef captures(none) %0) #1 {
  %2 = getelementptr inbounds nuw i8, ptr %0, i64 64
  %3 = load ptr, ptr %2, align 8
  %.not = icmp eq ptr %3, null
  br i1 %.not, label %4, label %tts_buffer_heap_materialize.exit

4:                                                ; preds = %1
  %5 = getelementptr inbounds nuw i8, ptr %0, i64 4
  %6 = load i16, ptr %5, align 4
  %7 = and i16 %6, 4
  %.not.i = icmp eq i16 %7, 0
  br i1 %.not.i, label %8, label %tts_buffer_heap_materialize.exit

8:                                                ; preds = %4
  %9 = getelementptr inbounds nuw i8, ptr %0, i64 40
  %10 = load ptr, ptr %9, align 8
  %11 = load ptr, ptr @CurrentMemoryContext, align 8
  store ptr %10, ptr @CurrentMemoryContext, align 8
  %12 = getelementptr inbounds nuw i8, ptr %0, i64 72
  store i32 0, ptr %12, align 8
  %13 = getelementptr inbounds nuw i8, ptr %0, i64 6
  store i16 0, ptr %13, align 2
  %14 = getelementptr inbounds nuw i8, ptr %0, i64 16
  %15 = load ptr, ptr %14, align 8
  %16 = getelementptr inbounds nuw i8, ptr %0, i64 24
  %17 = load ptr, ptr %16, align 8
  %18 = getelementptr inbounds nuw i8, ptr %0, i64 32
  %19 = load ptr, ptr %18, align 8
  %20 = tail call ptr @heap_form_tuple(ptr noundef %15, ptr noundef %17, ptr noundef %19) #14
  store ptr %20, ptr %2, align 8
  %21 = load i16, ptr %5, align 4
  %22 = or i16 %21, 4
  store i16 %22, ptr %5, align 4
  store ptr %11, ptr @CurrentMemoryContext, align 8
  br label %tts_buffer_heap_materialize.exit

tts_buffer_heap_materialize.exit:                 ; preds = %8, %4, %1
  %23 = phi ptr [ %20, %8 ], [ null, %4 ], [ %3, %1 ]
  ret ptr %23
}